; Function Attrs: mustprogress nounwind uwtable
define noundef zeroext i1 @_ZNK5osgeo4proj6common8DateTime10isISO_8601Ev(ptr noundef nonnull readonly align 8 captures(none) dereferenceable(8) %0) local_unnamed_addr #3 align 2 {
  %2 = load ptr, ptr %0, align 8, !tbaa !110
  %3 = getelementptr inbounds nuw i8, ptr %2, i64 8
  %4 = load i64, ptr %3, align 8, !tbaa !21
  %5 = icmp eq i64 %4, 0
  br i1 %5, label %13, label %6

6:                                                ; preds = %1
  %7 = load ptr, ptr %2, align 8, !tbaa !16
  %8 = load i8, ptr %7, align 1, !tbaa !22
  %9 = add i8 %8, -48
  %or.cond = icmp ult i8 %9, 10
  br i1 %or.cond, label %10, label %13

10:                                               ; preds = %6
  %11 = tail call noundef i64 @_ZNKSt7__cxx1112basic_stringIcSt11char_traitsIcESaIcEE4findEcm(ptr noundef nonnull align 8 dereferenceable(32) %2, i8 noundef signext 32, i64 noundef 0) #40
  %12 = icmp eq i64 %11, -1
  br label %13

13:                                               ; preds = %10, %6, %1
  %14 = phi i1 [ false, %6 ], [ false, %1 ], [ %12, %10 ]
  ret i1 %14
}